; Function Attrs: nofree norecurse nosync nounwind memory(read, argmem: readwrite, inaccessiblemem: none) uwtable
define hidden range(i32 0, 2) i32 @CBS_get_asn1(ptr noundef captures(none) %0, ptr noundef writeonly captures(address_is_null) %1, i32 noundef %2) local_unnamed_addr #10 {
  %4 = icmp eq ptr %1, null
  %.sroa.067.0.copyload.i.i.i = load ptr, ptr %0, align 8, !tbaa !14
  %.sroa.9.0..sroa_idx.i.i.i = getelementptr inbounds nuw i8, ptr %0, i64 8
  %.sroa.9.0.copyload.i.i.i = load i64, ptr %.sroa.9.0..sroa_idx.i.i.i, align 8, !tbaa !15
  %switch.i.i = icmp ult i64 %.sroa.9.0.copyload.i.i.i, 2
  br i1 %switch.i.i, label %cbs_get_asn1.exit, label %5

5:                                                ; preds = %3
  %6 = load i8, ptr %.sroa.067.0.copyload.i.i.i, align 1, !tbaa !16
  %7 = getelementptr inbounds nuw i8, ptr %.sroa.067.0.copyload.i.i.i, i64 1
  %8 = getelementptr inbounds nuw i8, ptr %.sroa.067.0.copyload.i.i.i, i64 2
  %9 = add i64 %.sroa.9.0.copyload.i.i.i, -2
  %10 = load i8, ptr %7, align 1, !tbaa !16
  %11 = zext i8 %6 to i32
  %12 = and i32 %11, 31
  %13 = icmp eq i32 %12, 31
  br i1 %13, label %cbs_get_asn1.exit, label %14

14:                                               ; preds = %5
  %15 = icmp sgt i8 %10, -1
  br i1 %15, label %16, label %18

16:                                               ; preds = %14
  %narrow.i.i.i = add nuw i8 %10, 2
  %17 = zext i8 %narrow.i.i.i to i64
  br label %CBS_get_bytes.exit.sink.split.i.i.i

18:                                               ; preds = %14
  %19 = and i8 %10, 127
  %20 = zext nneg i8 %19 to i64
  %21 = add nsw i8 %19, -5
  %or.cond3.i.i.i = icmp ult i8 %21, -4
  %22 = icmp ult i64 %9, %20
  %or.cond96.i.i.i = select i1 %or.cond3.i.i.i, i1 true, i1 %22
  br i1 %or.cond96.i.i.i, label %cbs_get_asn1.exit, label %cbs_get.exit.i.i.i.i

cbs_get.exit.i.i.i.i:                             ; preds = %18, %cbs_get.exit.i.i.i.i
  %.017.i.i.i.i = phi i64 [ %28, %cbs_get.exit.i.i.i.i ], [ 0, %18 ]
  %.01016.i.i.i.i = phi i32 [ %27, %cbs_get.exit.i.i.i.i ], [ 0, %18 ]
  %23 = shl i32 %.01016.i.i.i.i, 8
  %24 = getelementptr inbounds nuw i8, ptr %8, i64 %.017.i.i.i.i
  %25 = load i8, ptr %24, align 1, !tbaa !16
  %26 = zext i8 %25 to i32
  %27 = or disjoint i32 %23, %26
  %28 = add nuw nsw i64 %.017.i.i.i.i, 1
  %exitcond.not.i.i.i.i = icmp eq i64 %28, %20
  br i1 %exitcond.not.i.i.i.i, label %cbs_get_u.exit.i.i.i, label %cbs_get.exit.i.i.i.i, !llvm.loop !17

cbs_get_u.exit.i.i.i:                             ; preds = %cbs_get.exit.i.i.i.i
  %29 = icmp ult i32 %27, 128
  br i1 %29, label %cbs_get_asn1.exit, label %30

30:                                               ; preds = %cbs_get_u.exit.i.i.i
  %31 = shl i8 %10, 3
  %32 = zext i8 %31 to i32
  %33 = add nsw i32 %32, -8
  %34 = lshr i32 %27, %33
  %35 = icmp eq i32 %34, 0
  br i1 %35, label %cbs_get_asn1.exit, label %36

36:                                               ; preds = %30
  %37 = zext i32 %27 to i64
  %38 = add nuw nsw i64 %20, 2
  %39 = add nuw nsw i64 %38, %37
  br label %CBS_get_bytes.exit.sink.split.i.i.i

CBS_get_bytes.exit.sink.split.i.i.i:              ; preds = %36, %16
  %.sink.i.i.i = phi i64 [ 2, %16 ], [ %38, %36 ]
  %.else.val.i = phi i64 [ %17, %16 ], [ %39, %36 ]
  %40 = icmp ult i64 %.sroa.9.0.copyload.i.i.i, %.else.val.i
  br i1 %40, label %cbs_get_asn1.exit, label %41

41:                                               ; preds = %CBS_get_bytes.exit.sink.split.i.i.i
  %42 = getelementptr inbounds nuw i8, ptr %.sroa.067.0.copyload.i.i.i, i64 %.else.val.i
  store ptr %42, ptr %0, align 8, !tbaa !6
  %43 = sub nuw i64 %.sroa.9.0.copyload.i.i.i, %.else.val.i
  store i64 %43, ptr %.sroa.9.0..sroa_idx.i.i.i, align 8, !tbaa !13
  br i1 %4, label %CBS_get_any_asn1_element.exit.i, label %CBS_get_any_asn1_element.exit.i.thread

CBS_get_any_asn1_element.exit.i:                  ; preds = %41
  %.not6.i = icmp eq i32 %2, %11
  br i1 %.not6.i, label %.cont.i, label %cbs_get_asn1.exit

CBS_get_any_asn1_element.exit.i.thread:           ; preds = %41
  store ptr %.sroa.067.0.copyload.i.i.i, ptr %1, align 8, !tbaa !6
  %.sroa.gep10.i = getelementptr inbounds nuw i8, ptr %1, i64 8
  store i64 %.else.val.i, ptr %.sroa.gep10.i, align 8, !tbaa !13
  %.not6.i2 = icmp ne i32 %2, %11
  %44 = icmp ult i64 %.else.val.i, %.sink.i.i.i
  %or.cond = select i1 %.not6.i2, i1 true, i1 %44
  br i1 %or.cond, label %cbs_get_asn1.exit, label %.else15.i

.cont.i:                                          ; preds = %CBS_get_any_asn1_element.exit.i
  %45 = icmp uge i64 %.else.val.i, %.sink.i.i.i
  %spec.select.i = zext i1 %45 to i32
  br label %cbs_get_asn1.exit

.else15.i:                                        ; preds = %CBS_get_any_asn1_element.exit.i.thread
  %46 = getelementptr inbounds nuw i8, ptr %.sroa.067.0.copyload.i.i.i, i64 %.sink.i.i.i
  store ptr %46, ptr %1, align 8, !tbaa !6
  %47 = sub nuw nsw i64 %.else.val.i, %.sink.i.i.i
  store i64 %47, ptr %.sroa.gep10.i, align 8, !tbaa !13
  br label %cbs_get_asn1.exit

cbs_get_asn1.exit:                                ; preds = %CBS_get_any_asn1_element.exit.i.thread, %3, %5, %18, %cbs_get_u.exit.i.i.i, %30, %CBS_get_bytes.exit.sink.split.i.i.i, %CBS_get_any_asn1_element.exit.i, %.cont.i, %.else15.i
  %.0.i = phi i32 [ 0, %CBS_get_any_asn1_element.exit.i ], [ 1, %.else15.i ], [ 0, %5 ], [ 0, %CBS_get_bytes.exit.sink.split.i.i.i ], [ 0, %30 ], [ 0, %cbs_get_u.exit.i.i.i ], [ 0, %18 ], [ 0, %3 ], [ %spec.select.i, %.cont.i ], [ 0, %CBS_get_any_asn1_element.exit.i.thread ]
  ret i32 %.0.i
}